target datalayout = "e-m:e-p270:32:32-p271:32:32-p272:64:64-i64:64-i128:128-f80:128-n8:16:32:64-S128"
target triple = "x86_64-unknown-linux-gnu"

%"class.QuantLib::BlackCalculator" = type { ptr, double, double, double, double, double, double, double, double, double, double, double, double, double, double, double, double, double, double }

; Function Attrs: mustprogress nounwind uwtable
define noundef double @_ZNK8QuantLib15BlackCalculator17strikeSensitivityEv(ptr noundef nonnull align 8 dereferenceable(152) %this) #6 align 2 {
entry:
  %this.addr = alloca ptr, align 8
  %temp = alloca double, align 8
  %DalphaDstrike = alloca double, align 8
  %DbetaDstrike = alloca double, align 8
  %temp2 = alloca double, align 8
  store ptr %this, ptr %this.addr, align 8, !tbaa !3
  %this1 = load ptr, ptr %this.addr, align 8
  call void @llvm.lifetime.start.p0(i64 8, ptr %temp) #19
  %stdDev_ = getelementptr inbounds nuw %"class.QuantLib::BlackCalculator", ptr %this1, i32 0, i32 3
  %0 = load double, ptr %stdDev_, align 8, !tbaa !14
  %strike_ = getelementptr inbounds nuw %"class.QuantLib::BlackCalculator", ptr %this1, i32 0, i32 1
  %1 = load double, ptr %strike_, align 8, !tbaa !11
  %mul = fmul double %0, %1
  store double %mul, ptr %temp, align 8, !tbaa !9
  call void @llvm.lifetime.start.p0(i64 8, ptr %DalphaDstrike) #19
  %DalphaDd1_ = getelementptr inbounds nuw %"class.QuantLib::BlackCalculator", ptr %this1, i32 0, i32 10
  %2 = load double, ptr %DalphaDd1_, align 8, !tbaa !37
  %fneg = fneg double %2
  %3 = load double, ptr %temp, align 8, !tbaa !9
  %div = fdiv double %fneg, %3
  store double %div, ptr %DalphaDstrike, align 8, !tbaa !9
  call void @llvm.lifetime.start.p0(i64 8, ptr %DbetaDstrike) #19
  %DbetaDd2_ = getelementptr inbounds nuw %"class.QuantLib::BlackCalculator", ptr %this1, i32 0, i32 11
  %4 = load double, ptr %DbetaDd2_, align 8, !tbaa !39
  %fneg2 = fneg double %4
  %5 = load double, ptr %temp, align 8, !tbaa !9
  %div3 = fdiv double %fneg2, %5
  store double %div3, ptr %DbetaDstrike, align 8, !tbaa !9
  call void @llvm.lifetime.start.p0(i64 8, ptr %temp2) #19
  %6 = load double, ptr %DalphaDstrike, align 8, !tbaa !9
  %forward_ = getelementptr inbounds nuw %"class.QuantLib::BlackCalculator", ptr %this1, i32 0, i32 2
  %7 = load double, ptr %forward_, align 8, !tbaa !13
  %8 = load double, ptr %DbetaDstrike, align 8, !tbaa !9
  %x_ = getelementptr inbounds nuw %"class.QuantLib::BlackCalculator", ptr %this1, i32 0, i32 16
  %9 = load double, ptr %x_, align 8, !tbaa !33
  %mul5 = fmul double %8, %9
  %10 = call double @llvm.fmuladd.f64(double %6, double %7, double %mul5)
  %beta_ = getelementptr inbounds nuw %"class.QuantLib::BlackCalculator", ptr %this1, i32 0, i32 9
  %11 = load double, ptr %beta_, align 8, !tbaa !38
  %DxDstrike_ = getelementptr inbounds nuw %"class.QuantLib::BlackCalculator", ptr %this1, i32 0, i32 18
  %12 = load double, ptr %DxDstrike_, align 8, !tbaa !34
  %13 = call double @llvm.fmuladd.f64(double %11, double %12, double %10)
  store double %13, ptr %temp2, align 8, !tbaa !9
  %discount_ = getelementptr inbounds nuw %"class.QuantLib::BlackCalculator", ptr %this1, i32 0, i32 4
  %14 = load double, ptr %discount_, align 8, !tbaa !15
  %15 = load double, ptr %temp2, align 8, !tbaa !9
  %mul7 = fmul double %14, %15
  call void @llvm.lifetime.end.p0(i64 8, ptr %temp2) #19
  call void @llvm.lifetime.end.p0(i64 8, ptr %DbetaDstrike) #19
  call void @llvm.lifetime.end.p0(i64 8, ptr %DalphaDstrike) #19
  call void @llvm.lifetime.end.p0(i64 8, ptr %temp) #19
  ret double %mul7
}