; Function Attrs: mustprogress nofree norecurse nosync nounwind willreturn memory(argmem: read) uwtable
define noundef double @_ZNK8QuantLib15BlackCalculator17strikeSensitivityEv(ptr nocapture noundef nonnull readonly align 8 dereferenceable(152) %this) local_unnamed_addr #17 align 2 {
entry:
  %stdDev_ = getelementptr inbounds nuw i8, ptr %this, i64 24
  %0 = load double, ptr %stdDev_, align 8, !tbaa !30
  %strike_ = getelementptr inbounds nuw i8, ptr %this, i64 8
  %1 = load double, ptr %strike_, align 8, !tbaa !27
  %mul = fmul double %0, %1
  %DalphaDd1_ = getelementptr inbounds nuw i8, ptr %this, i64 80
  %2 = load double, ptr %DalphaDd1_, align 8, !tbaa !56
  %fneg = fneg double %2
  %div = fdiv double %fneg, %mul
  %DbetaDd2_ = getelementptr inbounds nuw i8, ptr %this, i64 88
  %3 = load double, ptr %DbetaDd2_, align 8, !tbaa !58
  %fneg2 = fneg double %3
  %div3 = fdiv double %fneg2, %mul
  %forward_ = getelementptr inbounds nuw i8, ptr %this, i64 16
  %4 = load double, ptr %forward_, align 8, !tbaa !29
  %x_ = getelementptr inbounds nuw i8, ptr %this, i64 128
  %5 = load double, ptr %x_, align 8, !tbaa !51
  %mul5 = fmul double %div3, %5
  %6 = tail call double @llvm.fmuladd.f64(double %div, double %4, double %mul5)
  %beta_ = getelementptr inbounds nuw i8, ptr %this, i64 72
  %7 = load double, ptr %beta_, align 8, !tbaa !57
  %DxDstrike_ = getelementptr inbounds nuw i8, ptr %this, i64 144
  %8 = load double, ptr %DxDstrike_, align 8, !tbaa !52
  %9 = tail call double @llvm.fmuladd.f64(double %7, double %8, double %6)
  %discount_ = getelementptr inbounds nuw i8, ptr %this, i64 32
  %10 = load double, ptr %discount_, align 8, !tbaa !31
  %mul7 = fmul double %10, %9
  ret double %mul7
}